; Function Attrs: mustprogress nounwind uwtable
define hidden void @_ZN9xmlStream8end_headEPKcz(ptr noundef nonnull align 8 dereferenceable(152) %0, ptr noundef %1, ...) local_unnamed_addr #0 align 2 {
  %3 = alloca [1 x %struct.__va_list_tag], align 16
  call void @llvm.va_start.p0(ptr nonnull %3)
  %4 = getelementptr inbounds i8, ptr %0, i64 56
  %5 = load ptr, ptr %4, align 8
  call void @_ZN12outputStream6vprintEPKcP13__va_list_tag(ptr noundef nonnull align 8 dereferenceable(56) %5, ptr noundef %1, ptr noundef nonnull %3) #8
  call void @llvm.va_end.p0(ptr nonnull %3)
  call void @_ZN12outputStream9print_rawEPKcm(ptr noundef nonnull align 8 dereferenceable(56) %0, ptr noundef nonnull @.str.10, i64 noundef 2) #8
  %6 = getelementptr inbounds i8, ptr %0, i64 72
  store i32 0, ptr %6, align 8
  ret void
}